target datalayout = "e-m:e-p270:32:32-p271:32:32-p272:64:64-i64:64-i128:128-f80:128-n8:16:32:64-S128"
target triple = "x86_64-pc-linux-gnu"

%struct._e_guid_t = type { i32, i16, i16, [8 x i8] }

; Function Attrs: inlinehint nounwind null_pointer_is_valid sspstrong uwtable
define internal zeroext i16 @pntoh16(ptr noundef %0) #7 {
  %2 = alloca ptr, align 8
  store ptr %0, ptr %2, align 8
  %3 = load ptr, ptr %2, align 8
  %4 = getelementptr i8, ptr %3, i64 0
  %5 = load i8, ptr %4, align 1
  %6 = zext i8 %5 to i16
  %7 = zext i16 %6 to i32
  %8 = shl i32 %7, 8
  %9 = load ptr, ptr %2, align 8
  %10 = getelementptr i8, ptr %9, i64 1
  %11 = load i8, ptr %10, align 1
  %12 = zext i8 %11 to i16
  %13 = zext i16 %12 to i32
  %14 = shl i32 %13, 0
  %15 = or i32 %8, %14
  %16 = trunc i32 %15 to i16
  ret i16 %16
}

; Function Attrs: inlinehint nounwind null_pointer_is_valid sspstrong uwtable
define internal i32 @pntoh32(ptr noundef %0) #7 {
  %2 = alloca ptr, align 8
  store ptr %0, ptr %2, align 8
  %3 = load ptr, ptr %2, align 8
  %4 = getelementptr i8, ptr %3, i64 0
  %5 = load i8, ptr %4, align 1
  %6 = zext i8 %5 to i32
  %7 = shl i32 %6, 24
  %8 = load ptr, ptr %2, align 8
  %9 = getelementptr i8, ptr %8, i64 1
  %10 = load i8, ptr %9, align 1
  %11 = zext i8 %10 to i32
  %12 = shl i32 %11, 16
  %13 = or i32 %7, %12
  %14 = load ptr, ptr %2, align 8
  %15 = getelementptr i8, ptr %14, i64 2
  %16 = load i8, ptr %15, align 1
  %17 = zext i8 %16 to i32
  %18 = shl i32 %17, 8
  %19 = or i32 %13, %18
  %20 = load ptr, ptr %2, align 8
  %21 = getelementptr i8, ptr %20, i64 3
  %22 = load i8, ptr %21, align 1
  %23 = zext i8 %22 to i32
  %24 = shl i32 %23, 0
  %25 = or i32 %19, %24
  ret i32 %25
}

; Function Attrs: alwaysinline nounwind
define internal ptr @memcpy.inline(ptr noalias %0, ptr noalias %1, i64 %2) #8 {
  %4 = alloca ptr, align 8
  %5 = alloca ptr, align 8
  %6 = alloca i64, align 8
  store ptr %0, ptr %4, align 8
  store ptr %1, ptr %5, align 8
  store i64 %2, ptr %6, align 8
  %7 = load ptr, ptr %4, align 8
  %8 = load ptr, ptr %5, align 8
  %9 = load i64, ptr %6, align 8
  %10 = load ptr, ptr %4, align 8
  %11 = call i64 @llvm.objectsize.i64.p0(ptr %10, i1 false, i1 true, i1 true)
  %12 = call ptr @__memcpy_chk(ptr noundef %7, ptr noundef %8, i64 noundef %9, i64 noundef %11) #16
  ret ptr %12
}

; Function Attrs: inlinehint nounwind null_pointer_is_valid sspstrong uwtable
define internal zeroext i16 @pletoh16(ptr noundef %0) #7 {
  %2 = alloca ptr, align 8
  store ptr %0, ptr %2, align 8
  %3 = load ptr, ptr %2, align 8
  %4 = getelementptr i8, ptr %3, i64 1
  %5 = load i8, ptr %4, align 1
  %6 = zext i8 %5 to i16
  %7 = zext i16 %6 to i32
  %8 = shl i32 %7, 8
  %9 = load ptr, ptr %2, align 8
  %10 = getelementptr i8, ptr %9, i64 0
  %11 = load i8, ptr %10, align 1
  %12 = zext i8 %11 to i16
  %13 = zext i16 %12 to i32
  %14 = shl i32 %13, 0
  %15 = or i32 %8, %14
  %16 = trunc i32 %15 to i16
  ret i16 %16
}

; Function Attrs: inlinehint nounwind null_pointer_is_valid sspstrong uwtable
define internal i32 @pletoh32(ptr noundef %0) #7 {
  %2 = alloca ptr, align 8
  store ptr %0, ptr %2, align 8
  %3 = load ptr, ptr %2, align 8
  %4 = getelementptr i8, ptr %3, i64 3
  %5 = load i8, ptr %4, align 1
  %6 = zext i8 %5 to i32
  %7 = shl i32 %6, 24
  %8 = load ptr, ptr %2, align 8
  %9 = getelementptr i8, ptr %8, i64 2
  %10 = load i8, ptr %9, align 1
  %11 = zext i8 %10 to i32
  %12 = shl i32 %11, 16
  %13 = or i32 %7, %12
  %14 = load ptr, ptr %2, align 8
  %15 = getelementptr i8, ptr %14, i64 1
  %16 = load i8, ptr %15, align 1
  %17 = zext i8 %16 to i32
  %18 = shl i32 %17, 8
  %19 = or i32 %13, %18
  %20 = load ptr, ptr %2, align 8
  %21 = getelementptr i8, ptr %20, i64 0
  %22 = load i8, ptr %21, align 1
  %23 = zext i8 %22 to i32
  %24 = shl i32 %23, 0
  %25 = or i32 %19, %24
  ret i32 %25
}

; Function Attrs: null_pointer_is_valid sspstrong uwtable
define void @tvb_get_ntohguid(ptr noundef %0, i32 noundef %1, ptr noundef %2) #0 {
  %4 = alloca ptr, align 8
  %5 = alloca i32, align 4
  %6 = alloca ptr, align 8
  %7 = alloca ptr, align 8
  store ptr %0, ptr %4, align 8
  store i32 %1, ptr %5, align 4
  store ptr %2, ptr %6, align 8
  call void @llvm.lifetime.start.p0(i64 8, ptr %7) #16
  %8 = load ptr, ptr %4, align 8
  %9 = load i32, ptr %5, align 4
  %10 = call ptr @ensure_contiguous(ptr noundef %8, i32 noundef %9, i32 noundef 16)
  store ptr %10, ptr %7, align 8
  %11 = load ptr, ptr %7, align 8
  %12 = getelementptr i8, ptr %11, i64 0
  %13 = call i32 @pntoh32(ptr noundef %12)
  %14 = load ptr, ptr %6, align 8
  %15 = getelementptr inbounds nuw %struct._e_guid_t, ptr %14, i32 0, i32 0
  store i32 %13, ptr %15, align 4
  %16 = load ptr, ptr %7, align 8
  %17 = getelementptr i8, ptr %16, i64 4
  %18 = call zeroext i16 @pntoh16(ptr noundef %17)
  %19 = load ptr, ptr %6, align 8
  %20 = getelementptr inbounds nuw %struct._e_guid_t, ptr %19, i32 0, i32 1
  store i16 %18, ptr %20, align 4
  %21 = load ptr, ptr %7, align 8
  %22 = getelementptr i8, ptr %21, i64 6
  %23 = call zeroext i16 @pntoh16(ptr noundef %22)
  %24 = load ptr, ptr %6, align 8
  %25 = getelementptr inbounds nuw %struct._e_guid_t, ptr %24, i32 0, i32 2
  store i16 %23, ptr %25, align 2
  %26 = load ptr, ptr %6, align 8
  %27 = getelementptr inbounds nuw %struct._e_guid_t, ptr %26, i32 0, i32 3
  %28 = getelementptr inbounds [8 x i8], ptr %27, i64 0, i64 0
  %29 = load ptr, ptr %7, align 8
  %30 = getelementptr i8, ptr %29, i64 8
  %31 = call ptr @memcpy.inline(ptr noundef %28, ptr noundef %30, i64 noundef 8) #16
  call void @llvm.lifetime.end.p0(i64 8, ptr %7) #16
  ret void
}

; Function Attrs: null_pointer_is_valid sspstrong uwtable
define void @tvb_get_letohguid(ptr noundef %0, i32 noundef %1, ptr noundef %2) #0 {
  %4 = alloca ptr, align 8
  %5 = alloca i32, align 4
  %6 = alloca ptr, align 8
  %7 = alloca ptr, align 8
  store ptr %0, ptr %4, align 8
  store i32 %1, ptr %5, align 4
  store ptr %2, ptr %6, align 8
  call void @llvm.lifetime.start.p0(i64 8, ptr %7) #16
  %8 = load ptr, ptr %4, align 8
  %9 = load i32, ptr %5, align 4
  %10 = call ptr @ensure_contiguous(ptr noundef %8, i32 noundef %9, i32 noundef 16)
  store ptr %10, ptr %7, align 8
  %11 = load ptr, ptr %7, align 8
  %12 = getelementptr i8, ptr %11, i64 0
  %13 = call i32 @pletoh32(ptr noundef %12)
  %14 = load ptr, ptr %6, align 8
  %15 = getelementptr inbounds nuw %struct._e_guid_t, ptr %14, i32 0, i32 0
  store i32 %13, ptr %15, align 4
  %16 = load ptr, ptr %7, align 8
  %17 = getelementptr i8, ptr %16, i64 4
  %18 = call zeroext i16 @pletoh16(ptr noundef %17)
  %19 = load ptr, ptr %6, align 8
  %20 = getelementptr inbounds nuw %struct._e_guid_t, ptr %19, i32 0, i32 1
  store i16 %18, ptr %20, align 4
  %21 = load ptr, ptr %7, align 8
  %22 = getelementptr i8, ptr %21, i64 6
  %23 = call zeroext i16 @pletoh16(ptr noundef %22)
  %24 = load ptr, ptr %6, align 8
  %25 = getelementptr inbounds nuw %struct._e_guid_t, ptr %24, i32 0, i32 2
  store i16 %23, ptr %25, align 2
  %26 = load ptr, ptr %6, align 8
  %27 = getelementptr inbounds nuw %struct._e_guid_t, ptr %26, i32 0, i32 3
  %28 = getelementptr inbounds [8 x i8], ptr %27, i64 0, i64 0
  %29 = load ptr, ptr %7, align 8
  %30 = getelementptr i8, ptr %29, i64 8
  %31 = call ptr @memcpy.inline(ptr noundef %28, ptr noundef %30, i64 noundef 8) #16
  call void @llvm.lifetime.end.p0(i64 8, ptr %7) #16
  ret void
}

; Function Attrs: null_pointer_is_valid sspstrong uwtable
define void @tvb_get_guid(ptr noundef %0, i32 noundef %1, ptr noundef %2, i32 noundef %3) #0 {
  %5 = alloca ptr, align 8
  %6 = alloca i32, align 4
  %7 = alloca ptr, align 8
  %8 = alloca i32, align 4
  store ptr %0, ptr %5, align 8
  store i32 %1, ptr %6, align 4
  store ptr %2, ptr %7, align 8
  store i32 %3, ptr %8, align 4
  %9 = load i32, ptr %8, align 4
  %10 = icmp ne i32 %9, 0
  br i1 %10, label %11, label %15

11:                                               ; preds = %4
  %12 = load ptr, ptr %5, align 8
  %13 = load i32, ptr %6, align 4
  %14 = load ptr, ptr %7, align 8
  call void @tvb_get_letohguid(ptr noundef %12, i32 noundef %13, ptr noundef %14)
  br label %19

15:                                               ; preds = %4
  %16 = load ptr, ptr %5, align 8
  %17 = load i32, ptr %6, align 4
  %18 = load ptr, ptr %7, align 8
  call void @tvb_get_ntohguid(ptr noundef %16, i32 noundef %17, ptr noundef %18)
  br label %19

19:                                               ; preds = %15, %11
  ret void
}