; Function Attrs: null_pointer_is_valid sspstrong uwtable
define void @tvb_get_guid(ptr noundef %0, i32 noundef %1, ptr noundef initializes((0, 8)) %2, i32 noundef %3) local_unnamed_addr #0 {
  %.not = icmp eq i32 %3, 0
  %5 = tail call fastcc ptr @ensure_contiguous(ptr noundef %0, i32 noundef %1, i32 noundef 16)
  br i1 %.not, label %11, label %6

6:                                                ; preds = %4
  %7 = load i32, ptr %5, align 1
  store i32 %7, ptr %2, align 4
  %8 = getelementptr i8, ptr %5, i64 4
  %.val10.i = load i16, ptr %8, align 1
  %9 = getelementptr inbounds nuw i8, ptr %2, i64 4
  store i16 %.val10.i, ptr %9, align 4
  %10 = getelementptr i8, ptr %5, i64 6
  %.val.i = load i16, ptr %10, align 1
  br label %42

11:                                               ; preds = %4
  %12 = load i8, ptr %5, align 1
  %13 = zext i8 %12 to i32
  %14 = shl nuw i32 %13, 24
  %15 = getelementptr i8, ptr %5, i64 1
  %16 = load i8, ptr %15, align 1
  %17 = zext i8 %16 to i32
  %18 = shl nuw nsw i32 %17, 16
  %19 = or disjoint i32 %18, %14
  %20 = getelementptr i8, ptr %5, i64 2
  %21 = load i8, ptr %20, align 1
  %22 = zext i8 %21 to i32
  %23 = shl nuw nsw i32 %22, 8
  %24 = or disjoint i32 %19, %23
  %25 = getelementptr i8, ptr %5, i64 3
  %26 = load i8, ptr %25, align 1
  %27 = zext i8 %26 to i32
  %28 = or disjoint i32 %24, %27
  store i32 %28, ptr %2, align 4
  %29 = getelementptr i8, ptr %5, i64 4
  %.val10.i6 = load i8, ptr %29, align 1
  %30 = getelementptr i8, ptr %5, i64 5
  %.val11.i = load i8, ptr %30, align 1
  %31 = zext i8 %.val10.i6 to i16
  %32 = shl nuw i16 %31, 8
  %33 = zext i8 %.val11.i to i16
  %34 = or disjoint i16 %32, %33
  %35 = getelementptr inbounds nuw i8, ptr %2, i64 4
  store i16 %34, ptr %35, align 4
  %36 = getelementptr i8, ptr %5, i64 6
  %.val.i7 = load i8, ptr %36, align 1
  %37 = getelementptr i8, ptr %5, i64 7
  %.val9.i = load i8, ptr %37, align 1
  %38 = zext i8 %.val.i7 to i16
  %39 = shl nuw i16 %38, 8
  %40 = zext i8 %.val9.i to i16
  %41 = or disjoint i16 %39, %40
  br label %42

42:                                               ; preds = %11, %6
  %.sink = phi i16 [ %41, %11 ], [ %.val.i, %6 ]
  %43 = getelementptr inbounds nuw i8, ptr %2, i64 6
  store i16 %.sink, ptr %43, align 2
  %44 = getelementptr inbounds nuw i8, ptr %2, i64 8
  %45 = getelementptr i8, ptr %5, i64 8
  %46 = load i64, ptr %45, align 1
  store i64 %46, ptr %44, align 1
  ret void
}